; Function Attrs: mustprogress uwtable
define hidden noundef zeroext i1 @_ZNK19OpenColorIO_v2_4dev20GradingPrimaryOpData19hasChannelCrosstalkEv(ptr nocapture noundef nonnull readonly align 8 dereferenceable(192) %this) unnamed_addr #3 align 2 {
entry:
  %m_value = getelementptr inbounds i8, ptr %this, i64 176
  %0 = load ptr, ptr %m_value, align 8
  %vtable = load ptr, ptr %0, align 8
  %vfn = getelementptr inbounds i8, ptr %vtable, i64 24
  %1 = load ptr, ptr %vfn, align 8
  %call2 = tail call noundef nonnull align 8 dereferenceable(272) ptr %1(ptr noundef nonnull align 8 dereferenceable(392) %0)
  %m_saturation = getelementptr inbounds i8, ptr %call2, i64 224
  %2 = load double, ptr %m_saturation, align 8
  %cmp = fcmp une double %2, 1.000000e+00
  ret i1 %cmp
}